; Function Attrs: mustprogress uwtable
define dso_local void @_ZNK4pbrt17FloatImageTexture8ToStringB5cxx11Ev(ptr noalias nonnull sret(%"class.std::__cxx11::basic_string") align 8 %agg.result, ptr noundef nonnull align 8 dereferenceable(56) %this) local_unnamed_addr #0 align 2 personality ptr @__gxx_personality_v0 {
entry:
  %filename = getelementptr inbounds i8, ptr %this, i64 8
  %scale = getelementptr inbounds i8, ptr %this, i64 40
  %invert = getelementptr inbounds i8, ptr %this, i64 44
  %mipmap = getelementptr inbounds i8, ptr %this, i64 48
  %0 = load ptr, ptr %mipmap, align 8
  tail call void @_ZNSt7__cxx1112basic_stringIcSt11char_traitsIcESaIcEEC1Ev(ptr noundef nonnull align 8 dereferenceable(32) %agg.result) #23
  invoke void @_ZN4pbrt6detail21stringPrintfRecursiveIRKNSt7__cxx1112basic_stringIcSt11char_traitsIcESaIcEEEJRKNS_16TextureMapping2DERKfRKbRNS_6MIPMapEEEEvPS7_PKcOT_DpOT0_(ptr noundef nonnull %agg.result, ptr noundef nonnull @.str.49, ptr noundef nonnull align 8 dereferenceable(32) %filename, ptr noundef nonnull align 8 dereferenceable(8) %this, ptr noundef nonnull align 4 dereferenceable(4) %scale, ptr noundef nonnull align 1 dereferenceable(1) %invert, ptr noundef nonnull align 8 dereferenceable(52) %0)
          to label %_ZN4pbrt12StringPrintfIJRKNSt7__cxx1112basic_stringIcSt11char_traitsIcESaIcEEERKNS_16TextureMapping2DERKfRKbRNS_6MIPMapEEEES6_PKcDpOT_.exit unwind label %lpad.i

lpad.i:                                           ; preds = %entry
  %1 = landingpad { ptr, i32 }
          cleanup
  tail call void @_ZNSt7__cxx1112basic_stringIcSt11char_traitsIcESaIcEED1Ev(ptr noundef nonnull align 8 dereferenceable(32) %agg.result) #23
  resume { ptr, i32 } %1

_ZN4pbrt12StringPrintfIJRKNSt7__cxx1112basic_stringIcSt11char_traitsIcESaIcEEERKNS_16TextureMapping2DERKfRKbRNS_6MIPMapEEEES6_PKcDpOT_.exit: ; preds = %entry
  ret void
}